target datalayout = "e-m:e-p270:32:32-p271:32:32-p272:64:64-i64:64-i128:128-f80:128-n8:16:32:64-S128"
target triple = "x86_64-pc-linux-gnu"

; Function Attrs: mustprogress uwtable
define noundef zeroext i1 @_Z12is_dummymassPKc(ptr noundef %0) #0 {
  %2 = alloca ptr, align 8
  %3 = alloca [30 x i8], align 16
  store ptr %0, ptr %2, align 8, !tbaa !8
  call void @llvm.lifetime.start.p0(i64 30, ptr %3) #15
  %4 = getelementptr inbounds [30 x i8], ptr %3, i64 0, i64 0
  %5 = load ptr, ptr %2, align 8, !tbaa !8
  %6 = call ptr @strcpy(ptr noundef %4, ptr noundef %5) #15
  %7 = getelementptr inbounds [30 x i8], ptr %3, i64 0, i64 0
  call void @_Z4trimPc(ptr noundef %7)
  %8 = getelementptr inbounds [30 x i8], ptr %3, i64 0, i64 0
  %9 = load i8, ptr %8, align 16, !tbaa !25
  %10 = sext i8 %9 to i32
  %11 = icmp eq i32 %10, 77
  br i1 %11, label %12, label %21

12:                                               ; preds = %1
  %13 = getelementptr inbounds [30 x i8], ptr %3, i64 0, i64 0
  %14 = call i64 @strlen(ptr noundef %13) #19
  %15 = sub i64 %14, 1
  %16 = getelementptr inbounds nuw [30 x i8], ptr %3, i64 0, i64 %15
  %17 = load i8, ptr %16, align 1, !tbaa !25
  %18 = sext i8 %17 to i32
  %19 = call i32 @isdigit(i32 noundef %18) #19
  %20 = icmp ne i32 %19, 0
  br label %21

21:                                               ; preds = %12, %1
  %22 = phi i1 [ false, %1 ], [ %20, %12 ]
  call void @llvm.lifetime.end.p0(i64 30, ptr %3) #15
  ret i1 %22
}