; Function Attrs: mustprogress uwtable
define noundef zeroext i1 @_Z12is_dummymassPKc(ptr noundef readonly captures(none) %0) local_unnamed_addr #1 {
  %2 = alloca [30 x i8], align 16
  call void @llvm.lifetime.start.p0(i64 30, ptr nonnull %2) #28
  %3 = call ptr @strcpy(ptr noundef nonnull dereferenceable(1) %2, ptr noundef nonnull dereferenceable(1) %0) #28
  call void @_Z4trimPc(ptr noundef nonnull %2)
  %4 = load i8, ptr %2, align 16, !tbaa !13
  %5 = icmp eq i8 %4, 77
  br i1 %5, label %6, label %12

6:                                                ; preds = %1
  %7 = call i64 @strlen(ptr noundef nonnull dereferenceable(1) %2) #31
  %8 = add i64 %7, -1
  %9 = getelementptr inbounds nuw [30 x i8], ptr %2, i64 0, i64 %8
  %10 = load i8, ptr %9, align 1, !tbaa !13
  %11 = sext i8 %10 to i32
  %isdigittmp = add nsw i32 %11, -48
  %isdigit = icmp ult i32 %isdigittmp, 10
  br label %12

12:                                               ; preds = %6, %1
  %13 = phi i1 [ false, %1 ], [ %isdigit, %6 ]
  call void @llvm.lifetime.end.p0(i64 30, ptr nonnull %2) #28
  ret i1 %13
}